target datalayout = "e-m:e-p270:32:32-p271:32:32-p272:64:64-i64:64-i128:128-f80:128-n8:16:32:64-S128"
target triple = "x86_64-pc-linux-gnu"

%struct.strbuf = type { i64, i64, ptr }
%struct.string_list = type { ptr, i64, i64, i8, ptr }
%struct.string_list_item = type { ptr, ptr }
%struct.column_options = type { i32, i32, ptr, ptr }

@colopts = internal global i32 0, align 4
@del_list = internal global { ptr, i64, i64, i8, [7 x i8], ptr } { ptr null, i64 0, i64 0, i8 1, [7 x i8] zeroinitializer, ptr null }, align 8
@__const.pretty_print_dels.buf = private unnamed_addr constant %struct.strbuf { i64 0, i64 0, ptr @strbuf_slopbuf }, align 8
@.str.55 = private unnamed_addr constant [3 x i8] c"  \00", align 1

; Function Attrs: nounwind uwtable
define internal void @pretty_print_dels() #0 {
  %1 = alloca %struct.string_list, align 8
  %2 = alloca ptr, align 8
  %3 = alloca %struct.strbuf, align 8
  %4 = alloca ptr, align 8
  %5 = alloca %struct.column_options, align 8
  call void @llvm.lifetime.start.p0(i64 40, ptr %1) #11
  call void @llvm.memset.p0.i64(ptr align 8 %1, i8 0, i64 40, i1 false)
  %6 = getelementptr inbounds { ptr, i64, i64, i8, [7 x i8], ptr }, ptr %1, i32 0, i32 3
  store i8 1, ptr %6, align 8
  call void @llvm.lifetime.start.p0(i64 8, ptr %2) #11
  call void @llvm.lifetime.start.p0(i64 24, ptr %3) #11
  call void @llvm.memcpy.p0.p0.i64(ptr align 8 %3, ptr align 8 @__const.pretty_print_dels.buf, i64 24, i1 false)
  call void @llvm.lifetime.start.p0(i64 8, ptr %4) #11
  call void @llvm.lifetime.start.p0(i64 24, ptr %5) #11
  %7 = load ptr, ptr @del_list, align 8, !tbaa !69
  store ptr %7, ptr %2, align 8, !tbaa !82
  br label %8

8:                                                ; preds = %26, %0
  %9 = load ptr, ptr %2, align 8, !tbaa !82
  %10 = icmp ne ptr %9, null
  br i1 %10, label %11, label %17

11:                                               ; preds = %8
  %12 = load ptr, ptr %2, align 8, !tbaa !82
  %13 = load ptr, ptr @del_list, align 8, !tbaa !69
  %14 = load i64, ptr getelementptr inbounds nuw (%struct.string_list, ptr @del_list, i32 0, i32 1), align 8, !tbaa !66
  %15 = getelementptr inbounds nuw %struct.string_list_item, ptr %13, i64 %14
  %16 = icmp ult ptr %12, %15
  br label %17

17:                                               ; preds = %11, %8
  %18 = phi i1 [ false, %8 ], [ %16, %11 ]
  br i1 %18, label %19, label %29

19:                                               ; preds = %17
  %20 = load ptr, ptr %2, align 8, !tbaa !82
  %21 = getelementptr inbounds nuw %struct.string_list_item, ptr %20, i32 0, i32 0
  %22 = load ptr, ptr %21, align 8, !tbaa !70
  %23 = call ptr @quote_path(ptr noundef %22, ptr noundef null, ptr noundef %3, i32 noundef 0)
  store ptr %23, ptr %4, align 8, !tbaa !9
  %24 = load ptr, ptr %4, align 8, !tbaa !9
  %25 = call ptr @string_list_append(ptr noundef %1, ptr noundef %24)
  br label %26

26:                                               ; preds = %19
  %27 = load ptr, ptr %2, align 8, !tbaa !82
  %28 = getelementptr inbounds nuw %struct.string_list_item, ptr %27, i32 1
  store ptr %28, ptr %2, align 8, !tbaa !82
  br label %8, !llvm.loop !132

29:                                               ; preds = %17
  %30 = load i32, ptr @colopts, align 4, !tbaa !15
  %31 = and i32 %30, -49
  %32 = or i32 %31, 16
  store i32 %32, ptr @colopts, align 4, !tbaa !15
  call void @llvm.memset.p0.i64(ptr align 8 %5, i8 0, i64 24, i1 false)
  %33 = getelementptr inbounds nuw %struct.column_options, ptr %5, i32 0, i32 2
  store ptr @.str.55, ptr %33, align 8, !tbaa !133
  %34 = getelementptr inbounds nuw %struct.column_options, ptr %5, i32 0, i32 1
  store i32 2, ptr %34, align 4, !tbaa !135
  %35 = load i32, ptr @colopts, align 4, !tbaa !15
  call void @print_columns(ptr noundef %1, i32 noundef %35, ptr noundef %5)
  call void @strbuf_release(ptr noundef %3)
  call void @string_list_clear(ptr noundef %1, i32 noundef 0)
  call void @llvm.lifetime.end.p0(i64 24, ptr %5) #11
  call void @llvm.lifetime.end.p0(i64 8, ptr %4) #11
  call void @llvm.lifetime.end.p0(i64 24, ptr %3) #11
  call void @llvm.lifetime.end.p0(i64 8, ptr %2) #11
  call void @llvm.lifetime.end.p0(i64 40, ptr %1) #11
  ret void
}