; Function Attrs: nounwind uwtable
define internal fastcc void @pretty_print_dels() unnamed_addr #0 {
  %1 = alloca %struct.string_list, align 8
  %2 = alloca %struct.strbuf, align 8
  %3 = alloca %struct.column_options, align 8
  call void @llvm.lifetime.start.p0(i64 40, ptr nonnull %1) #16
  call void @llvm.memset.p0.i64(ptr noundef nonnull align 8 dereferenceable(40) %1, i8 0, i64 40, i1 false)
  %4 = getelementptr inbounds nuw i8, ptr %1, i64 24
  store i8 1, ptr %4, align 8
  call void @llvm.lifetime.start.p0(i64 24, ptr nonnull %2) #16
  call void @llvm.memcpy.p0.p0.i64(ptr noundef nonnull align 8 dereferenceable(24) %2, ptr noundef nonnull align 8 dereferenceable(24) @__const.remove_dirs.real_ocwd, i64 24, i1 false)
  call void @llvm.lifetime.start.p0(i64 24, ptr nonnull %3) #16
  %5 = load ptr, ptr @del_list, align 8, !tbaa !59
  %.not5 = icmp eq ptr %5, null
  br i1 %.not5, label %.critedge, label %.lr.ph.preheader

.lr.ph.preheader:                                 ; preds = %0
  %6 = load ptr, ptr @del_list, align 8, !tbaa !59
  %7 = load i64, ptr getelementptr inbounds nuw (i8, ptr @del_list, i64 8), align 8, !tbaa !56
  %8 = getelementptr inbounds nuw %struct.string_list_item, ptr %6, i64 %7
  %9 = icmp ult ptr %5, %8
  br i1 %9, label %.lr.ph, label %.critedge

.lr.ph:                                           ; preds = %.lr.ph.preheader, %.lr.ph
  %.068 = phi ptr [ %13, %.lr.ph ], [ %5, %.lr.ph.preheader ]
  %10 = load ptr, ptr %.068, align 8, !tbaa !60
  %11 = call ptr @quote_path(ptr noundef %10, ptr noundef null, ptr noundef nonnull %2, i32 noundef 0) #16
  %12 = call ptr @string_list_append(ptr noundef nonnull %1, ptr noundef %11) #16
  %13 = getelementptr inbounds nuw i8, ptr %.068, i64 16
  %14 = load ptr, ptr @del_list, align 8, !tbaa !59
  %15 = load i64, ptr getelementptr inbounds nuw (i8, ptr @del_list, i64 8), align 8, !tbaa !56
  %16 = getelementptr inbounds nuw %struct.string_list_item, ptr %14, i64 %15
  %17 = icmp ult ptr %13, %16
  br i1 %17, label %.lr.ph, label %.critedge

.critedge:                                        ; preds = %.lr.ph, %.lr.ph.preheader, %0
  %18 = load i32, ptr @colopts, align 4, !tbaa !11
  %19 = and i32 %18, -49
  %20 = or disjoint i32 %19, 16
  store i32 %20, ptr @colopts, align 4, !tbaa !11
  call void @llvm.memset.p0.i64(ptr noundef nonnull align 8 dereferenceable(24) %3, i8 0, i64 24, i1 false)
  %21 = getelementptr inbounds nuw i8, ptr %3, i64 8
  store ptr @.str.55, ptr %21, align 8, !tbaa !106
  %22 = getelementptr inbounds nuw i8, ptr %3, i64 4
  store i32 2, ptr %22, align 4, !tbaa !108
  call void @print_columns(ptr noundef nonnull %1, i32 noundef %20, ptr noundef nonnull %3) #16
  call void @strbuf_release(ptr noundef nonnull %2) #16
  call void @string_list_clear(ptr noundef nonnull %1, i32 noundef 0) #16
  call void @llvm.lifetime.end.p0(i64 24, ptr nonnull %3) #16
  call void @llvm.lifetime.end.p0(i64 24, ptr nonnull %2) #16
  call void @llvm.lifetime.end.p0(i64 40, ptr nonnull %1) #16
  ret void
}